target datalayout = "e-m:e-p270:32:32-p271:32:32-p272:64:64-i64:64-i128:128-f80:128-n8:16:32:64-S128"
target triple = "x86_64-pc-linux-gnu"

%struct.buf_t = type { i32, ptr, i32, i32, i8, i8 }

@temp_kvs_buf = internal global ptr null, align 8
@temp_kvs_cnt = internal global i32 0, align 4
@temp_kvs_size = internal global i32 0, align 4
@.str = private unnamed_addr constant [6 x i8] c"kvs.c\00", align 1
@__func__.temp_kvs_add = private unnamed_addr constant [13 x i8] c"temp_kvs_add\00", align 1

; Function Attrs: nounwind uwtable
define dso_local i32 @temp_kvs_add(ptr noundef %0, ptr noundef %1) #0 {
  %3 = alloca i32, align 4
  %4 = alloca ptr, align 8
  %5 = alloca ptr, align 8
  %6 = alloca ptr, align 8
  %7 = alloca i32, align 4
  %8 = alloca i32, align 4
  %9 = alloca i32, align 4
  %10 = alloca i32, align 4
  store ptr %0, ptr %4, align 8
  store ptr %1, ptr %5, align 8
  call void @llvm.lifetime.start.p0(i64 8, ptr %6) #7
  call void @llvm.lifetime.start.p0(i64 4, ptr %7) #7
  %11 = load ptr, ptr %4, align 8
  %12 = icmp eq ptr %11, null
  br i1 %12, label %16, label %13

13:                                               ; preds = %2
  %14 = load ptr, ptr %5, align 8
  %15 = icmp eq ptr %14, null
  br i1 %15, label %16, label %17

16:                                               ; preds = %13, %2
  store i32 0, ptr %3, align 4
  store i32 1, ptr %8, align 4
  br label %82

17:                                               ; preds = %13
  %18 = call ptr @slurm_init_buf(i32 noundef 1096)
  store ptr %18, ptr %6, align 8
  br label %19

19:                                               ; preds = %17
  call void @llvm.lifetime.start.p0(i64 4, ptr %9) #7
  store i32 0, ptr %9, align 4
  %20 = load ptr, ptr %4, align 8
  %21 = icmp ne ptr %20, null
  br i1 %21, label %22, label %27

22:                                               ; preds = %19
  %23 = load ptr, ptr %4, align 8
  %24 = call i64 @strlen(ptr noundef %23) #8
  %25 = trunc i64 %24 to i32
  %26 = add i32 %25, 1
  store i32 %26, ptr %9, align 4
  br label %27

27:                                               ; preds = %22, %19
  %28 = load ptr, ptr %4, align 8
  %29 = load i32, ptr %9, align 4
  %30 = load ptr, ptr %6, align 8
  call void @slurm_packmem(ptr noundef %28, i32 noundef %29, ptr noundef %30)
  call void @llvm.lifetime.end.p0(i64 4, ptr %9) #7
  br label %31

31:                                               ; preds = %27
  br label %32

32:                                               ; preds = %31
  br label %33

33:                                               ; preds = %32
  call void @llvm.lifetime.start.p0(i64 4, ptr %10) #7
  store i32 0, ptr %10, align 4
  %34 = load ptr, ptr %5, align 8
  %35 = icmp ne ptr %34, null
  br i1 %35, label %36, label %41

36:                                               ; preds = %33
  %37 = load ptr, ptr %5, align 8
  %38 = call i64 @strlen(ptr noundef %37) #8
  %39 = trunc i64 %38 to i32
  %40 = add i32 %39, 1
  store i32 %40, ptr %10, align 4
  br label %41

41:                                               ; preds = %36, %33
  %42 = load ptr, ptr %5, align 8
  %43 = load i32, ptr %10, align 4
  %44 = load ptr, ptr %6, align 8
  call void @slurm_packmem(ptr noundef %42, i32 noundef %43, ptr noundef %44)
  call void @llvm.lifetime.end.p0(i64 4, ptr %10) #7
  br label %45

45:                                               ; preds = %41
  br label %46

46:                                               ; preds = %45
  %47 = load ptr, ptr %6, align 8
  %48 = getelementptr inbounds nuw %struct.buf_t, ptr %47, i32 0, i32 3
  %49 = load i32, ptr %48, align 4
  store i32 %49, ptr %7, align 4
  %50 = load i32, ptr @temp_kvs_cnt, align 4
  %51 = load i32, ptr %7, align 4
  %52 = add i32 %50, %51
  %53 = load i32, ptr @temp_kvs_size, align 4
  %54 = icmp ugt i32 %52, %53
  br i1 %54, label %55, label %61

55:                                               ; preds = %46
  %56 = load i32, ptr @temp_kvs_size, align 4
  %57 = add nsw i32 %56, 2048
  store i32 %57, ptr @temp_kvs_size, align 4
  %58 = load i32, ptr @temp_kvs_size, align 4
  %59 = sext i32 %58 to i64
  %60 = call ptr @slurm_xrecalloc(ptr noundef @temp_kvs_buf, i64 noundef 1, i64 noundef %59, i1 noundef zeroext true, i1 noundef zeroext false, ptr noundef @.str, i32 noundef 158, ptr noundef @__func__.temp_kvs_add)
  br label %61

61:                                               ; preds = %55, %46
  %62 = load ptr, ptr @temp_kvs_buf, align 8
  %63 = load i32, ptr @temp_kvs_cnt, align 4
  %64 = sext i32 %63 to i64
  %65 = getelementptr inbounds i8, ptr %62, i64 %64
  %66 = load ptr, ptr %6, align 8
  %67 = getelementptr inbounds nuw %struct.buf_t, ptr %66, i32 0, i32 1
  %68 = load ptr, ptr %67, align 8
  %69 = load i32, ptr %7, align 4
  %70 = zext i32 %69 to i64
  call void @llvm.memcpy.p0.p0.i64(ptr align 1 %65, ptr align 1 %68, i64 %70, i1 false)
  %71 = load i32, ptr %7, align 4
  %72 = load i32, ptr @temp_kvs_cnt, align 4
  %73 = add i32 %72, %71
  store i32 %73, ptr @temp_kvs_cnt, align 4
  br label %74

74:                                               ; preds = %61
  %75 = load ptr, ptr %6, align 8
  %76 = icmp ne ptr %75, null
  br i1 %76, label %77, label %79

77:                                               ; preds = %74
  %78 = load ptr, ptr %6, align 8
  call void @slurm_free_buf(ptr noundef %78)
  br label %79

79:                                               ; preds = %77, %74
  store ptr null, ptr %6, align 8
  br label %80

80:                                               ; preds = %79
  br label %81

81:                                               ; preds = %80
  store i32 0, ptr %3, align 4
  store i32 1, ptr %8, align 4
  br label %82

82:                                               ; preds = %81, %16
  call void @llvm.lifetime.end.p0(i64 4, ptr %7) #7
  call void @llvm.lifetime.end.p0(i64 8, ptr %6) #7
  %83 = load i32, ptr %3, align 4
  ret i32 %83
}