; Function Attrs: nounwind uwtable
define dso_local noundef i32 @temp_kvs_add(ptr noundef %0, ptr noundef %1) local_unnamed_addr #0 {
  %3 = icmp eq ptr %0, null
  %4 = icmp eq ptr %1, null
  %or.cond = or i1 %3, %4
  br i1 %or.cond, label %31, label %5

5:                                                ; preds = %2
  %6 = tail call ptr @slurm_init_buf(i32 noundef 1096) #6
  %7 = tail call i64 @strlen(ptr noundef nonnull dereferenceable(1) %0) #7
  %8 = trunc i64 %7 to i32
  %9 = add i32 %8, 1
  tail call void @slurm_packmem(ptr noundef nonnull %0, i32 noundef %9, ptr noundef %6) #6
  %10 = tail call i64 @strlen(ptr noundef nonnull dereferenceable(1) %1) #7
  %11 = trunc i64 %10 to i32
  %12 = add i32 %11, 1
  tail call void @slurm_packmem(ptr noundef nonnull %1, i32 noundef %12, ptr noundef %6) #6
  %13 = getelementptr inbounds nuw i8, ptr %6, i64 20
  %14 = load i32, ptr %13, align 4
  %15 = load i32, ptr @temp_kvs_cnt, align 4
  %16 = add i32 %15, %14
  %17 = load i32, ptr @temp_kvs_size, align 4
  %18 = icmp ugt i32 %16, %17
  br i1 %18, label %19, label %23

19:                                               ; preds = %5
  %20 = add nsw i32 %17, 2048
  store i32 %20, ptr @temp_kvs_size, align 4
  %21 = sext i32 %20 to i64
  %22 = tail call ptr @slurm_xrecalloc(ptr noundef nonnull @temp_kvs_buf, i64 noundef 1, i64 noundef %21, i1 noundef zeroext true, i1 noundef zeroext false, ptr noundef nonnull @.str, i32 noundef 158, ptr noundef nonnull @__func__.temp_kvs_add) #6
  %.pre = load i32, ptr @temp_kvs_cnt, align 4
  %.pre26 = add i32 %.pre, %14
  br label %23

23:                                               ; preds = %5, %19
  %.pre-phi = phi i32 [ %16, %5 ], [ %.pre26, %19 ]
  %24 = phi i32 [ %15, %5 ], [ %.pre, %19 ]
  %25 = load ptr, ptr @temp_kvs_buf, align 8
  %26 = sext i32 %24 to i64
  %27 = getelementptr inbounds i8, ptr %25, i64 %26
  %28 = getelementptr inbounds nuw i8, ptr %6, i64 8
  %29 = load ptr, ptr %28, align 8
  %30 = zext i32 %14 to i64
  tail call void @llvm.memcpy.p0.p0.i64(ptr align 1 %27, ptr align 1 %29, i64 %30, i1 false)
  store i32 %.pre-phi, ptr @temp_kvs_cnt, align 4
  tail call void @slurm_free_buf(ptr noundef nonnull %6) #6
  br label %31

31:                                               ; preds = %23, %2
  ret i32 0
}